target datalayout = "e-m:e-p270:32:32-p271:32:32-p272:64:64-i64:64-i128:128-f80:128-n8:16:32:64-S128"
target triple = "x86_64-pc-linux-gnu"

%struct.GVJ_s = type { ptr, ptr, ptr, ptr, ptr, ptr, i32, ptr, ptr, ptr, ptr, i64, i64, ptr, i32, %struct.gvplugin_active_render_s, %struct.gvplugin_active_device_s, %struct.gvplugin_active_loadimage_t, ptr, %struct.pointf_s, i8, ptr, i32, ptr, i8, ptr, i32, i32, i32, %struct.point, %struct.point, %struct.point, %struct.point, %struct.point, i32, %struct.boxf, %struct.pointf_s, %struct.boxf, %struct.boxf, %struct.pointf_s, %struct.pointf_s, double, i32, %struct.pointf_s, %struct.boxf, %struct.pointf_s, %struct.pointf_s, i32, i32, %struct.box, %struct.box, %struct.pointf_s, %struct.pointf_s, %struct.pointf_s, i8, i8, i8, i8, i8, i8, %struct.pointf_s, %struct.pointf_s, ptr, ptr, ptr, ptr, ptr, ptr, i64, ptr }
%struct.gvplugin_active_render_s = type { ptr, i32, ptr, ptr }
%struct.gvplugin_active_device_s = type { ptr, i32, ptr, ptr }
%struct.gvplugin_active_loadimage_t = type { ptr, i32, ptr }
%struct.point = type { i32, i32 }
%struct.boxf = type { %struct.pointf_s, %struct.pointf_s }
%struct.box = type { %struct.point, %struct.point }
%struct.pointf_s = type { double, double }

; Function Attrs: nounwind uwtable
define internal void @gvevent_motion(ptr noundef %0, double %1, double %2) #0 {
  %4 = alloca %struct.pointf_s, align 8
  %5 = alloca ptr, align 8
  %6 = alloca double, align 8
  %7 = alloca double, align 8
  %8 = alloca i32, align 4
  %9 = getelementptr inbounds nuw { double, double }, ptr %4, i32 0, i32 0
  store double %1, ptr %9, align 8
  %10 = getelementptr inbounds nuw { double, double }, ptr %4, i32 0, i32 1
  store double %2, ptr %10, align 8
  store ptr %0, ptr %5, align 8, !tbaa !3
  call void @llvm.lifetime.start.p0(i64 8, ptr %6) #6
  %11 = getelementptr inbounds nuw %struct.pointf_s, ptr %4, i32 0, i32 0
  %12 = load double, ptr %11, align 8, !tbaa !81
  %13 = load ptr, ptr %5, align 8, !tbaa !3
  %14 = getelementptr inbounds nuw %struct.GVJ_s, ptr %13, i32 0, i32 61
  %15 = getelementptr inbounds nuw %struct.pointf_s, ptr %14, i32 0, i32 0
  %16 = load double, ptr %15, align 8, !tbaa !85
  %17 = fsub double %12, %16
  %18 = load ptr, ptr %5, align 8, !tbaa !3
  %19 = getelementptr inbounds nuw %struct.GVJ_s, ptr %18, i32 0, i32 53
  %20 = getelementptr inbounds nuw %struct.pointf_s, ptr %19, i32 0, i32 0
  %21 = load double, ptr %20, align 8, !tbaa !82
  %22 = fdiv double %17, %21
  store double %22, ptr %6, align 8, !tbaa !84
  call void @llvm.lifetime.start.p0(i64 8, ptr %7) #6
  %23 = getelementptr inbounds nuw %struct.pointf_s, ptr %4, i32 0, i32 1
  %24 = load double, ptr %23, align 8, !tbaa !79
  %25 = load ptr, ptr %5, align 8, !tbaa !3
  %26 = getelementptr inbounds nuw %struct.GVJ_s, ptr %25, i32 0, i32 61
  %27 = getelementptr inbounds nuw %struct.pointf_s, ptr %26, i32 0, i32 1
  %28 = load double, ptr %27, align 8, !tbaa !86
  %29 = fsub double %24, %28
  %30 = load ptr, ptr %5, align 8, !tbaa !3
  %31 = getelementptr inbounds nuw %struct.GVJ_s, ptr %30, i32 0, i32 53
  %32 = getelementptr inbounds nuw %struct.pointf_s, ptr %31, i32 0, i32 1
  %33 = load double, ptr %32, align 8, !tbaa !80
  %34 = fdiv double %29, %33
  store double %34, ptr %7, align 8, !tbaa !84
  %35 = load double, ptr %6, align 8, !tbaa !84
  %36 = call double @llvm.fabs.f64(double %35)
  %37 = fcmp olt double %36, 1.000000e-04
  br i1 %37, label %38, label %43

38:                                               ; preds = %3
  %39 = load double, ptr %7, align 8, !tbaa !84
  %40 = call double @llvm.fabs.f64(double %39)
  %41 = fcmp olt double %40, 1.000000e-04
  br i1 %41, label %42, label %43

42:                                               ; preds = %38
  store i32 1, ptr %8, align 4
  br label %107

43:                                               ; preds = %38, %3
  %44 = load ptr, ptr %5, align 8, !tbaa !3
  %45 = getelementptr inbounds nuw %struct.GVJ_s, ptr %44, i32 0, i32 59
  %46 = load i8, ptr %45, align 1, !tbaa !77
  %47 = zext i8 %46 to i32
  switch i32 %47, label %104 [
    i32 0, label %48
    i32 1, label %104
    i32 2, label %54
    i32 3, label %104
  ]

48:                                               ; preds = %43
  %49 = load ptr, ptr %5, align 8, !tbaa !3
  %50 = getelementptr inbounds nuw { double, double }, ptr %4, i32 0, i32 0
  %51 = load double, ptr %50, align 8
  %52 = getelementptr inbounds nuw { double, double }, ptr %4, i32 0, i32 1
  %53 = load double, ptr %52, align 8
  call void @gvevent_find_current_obj(ptr noundef %49, double %51, double %53)
  br label %104

54:                                               ; preds = %43
  %55 = load ptr, ptr %5, align 8, !tbaa !3
  %56 = getelementptr inbounds nuw %struct.GVJ_s, ptr %55, i32 0, i32 42
  %57 = load i32, ptr %56, align 8, !tbaa !78
  %58 = icmp ne i32 %57, 0
  br i1 %58, label %59, label %80

59:                                               ; preds = %54
  %60 = load double, ptr %7, align 8, !tbaa !84
  %61 = load ptr, ptr %5, align 8, !tbaa !3
  %62 = getelementptr inbounds nuw %struct.GVJ_s, ptr %61, i32 0, i32 41
  %63 = load double, ptr %62, align 8, !tbaa !31
  %64 = fdiv double %60, %63
  %65 = load ptr, ptr %5, align 8, !tbaa !3
  %66 = getelementptr inbounds nuw %struct.GVJ_s, ptr %65, i32 0, i32 40
  %67 = getelementptr inbounds nuw %struct.pointf_s, ptr %66, i32 0, i32 0
  %68 = load double, ptr %67, align 8, !tbaa !32
  %69 = fsub double %68, %64
  store double %69, ptr %67, align 8, !tbaa !32
  %70 = load double, ptr %6, align 8, !tbaa !84
  %71 = load ptr, ptr %5, align 8, !tbaa !3
  %72 = getelementptr inbounds nuw %struct.GVJ_s, ptr %71, i32 0, i32 41
  %73 = load double, ptr %72, align 8, !tbaa !31
  %74 = fdiv double %70, %73
  %75 = load ptr, ptr %5, align 8, !tbaa !3
  %76 = getelementptr inbounds nuw %struct.GVJ_s, ptr %75, i32 0, i32 40
  %77 = getelementptr inbounds nuw %struct.pointf_s, ptr %76, i32 0, i32 1
  %78 = load double, ptr %77, align 8, !tbaa !34
  %79 = fadd double %78, %74
  store double %79, ptr %77, align 8, !tbaa !34
  br label %101

80:                                               ; preds = %54
  %81 = load double, ptr %6, align 8, !tbaa !84
  %82 = load ptr, ptr %5, align 8, !tbaa !3
  %83 = getelementptr inbounds nuw %struct.GVJ_s, ptr %82, i32 0, i32 41
  %84 = load double, ptr %83, align 8, !tbaa !31
  %85 = fdiv double %81, %84
  %86 = load ptr, ptr %5, align 8, !tbaa !3
  %87 = getelementptr inbounds nuw %struct.GVJ_s, ptr %86, i32 0, i32 40
  %88 = getelementptr inbounds nuw %struct.pointf_s, ptr %87, i32 0, i32 0
  %89 = load double, ptr %88, align 8, !tbaa !32
  %90 = fsub double %89, %85
  store double %90, ptr %88, align 8, !tbaa !32
  %91 = load double, ptr %7, align 8, !tbaa !84
  %92 = load ptr, ptr %5, align 8, !tbaa !3
  %93 = getelementptr inbounds nuw %struct.GVJ_s, ptr %92, i32 0, i32 41
  %94 = load double, ptr %93, align 8, !tbaa !31
  %95 = fdiv double %91, %94
  %96 = load ptr, ptr %5, align 8, !tbaa !3
  %97 = getelementptr inbounds nuw %struct.GVJ_s, ptr %96, i32 0, i32 40
  %98 = getelementptr inbounds nuw %struct.pointf_s, ptr %97, i32 0, i32 1
  %99 = load double, ptr %98, align 8, !tbaa !34
  %100 = fsub double %99, %95
  store double %100, ptr %98, align 8, !tbaa !34
  br label %101

101:                                              ; preds = %80, %59
  %102 = load ptr, ptr %5, align 8, !tbaa !3
  %103 = getelementptr inbounds nuw %struct.GVJ_s, ptr %102, i32 0, i32 55
  store i8 1, ptr %103, align 1, !tbaa !33
  br label %104

104:                                              ; preds = %43, %43, %101, %43, %48
  %105 = load ptr, ptr %5, align 8, !tbaa !3
  %106 = getelementptr inbounds nuw %struct.GVJ_s, ptr %105, i32 0, i32 61
  call void @llvm.memcpy.p0.p0.i64(ptr align 8 %106, ptr align 8 %4, i64 16, i1 false), !tbaa.struct !83
  store i32 0, ptr %8, align 4
  br label %107

107:                                              ; preds = %104, %42
  call void @llvm.lifetime.end.p0(i64 8, ptr %7) #6
  call void @llvm.lifetime.end.p0(i64 8, ptr %6) #6
  %108 = load i32, ptr %8, align 4
  switch i32 %108, label %110 [
    i32 0, label %109
    i32 1, label %109
  ]

109:                                              ; preds = %107, %107
  ret void

110:                                              ; preds = %107
  unreachable
}