; Function Attrs: nounwind uwtable
define internal void @gvevent_motion(ptr noundef captures(none) %0, double %1, double %2) #2 {
  %4 = getelementptr inbounds nuw i8, ptr %0, i64 688
  %5 = load double, ptr %4, align 8, !tbaa !98
  %6 = fsub double %1, %5
  %7 = getelementptr inbounds nuw i8, ptr %0, i64 648
  %8 = load double, ptr %7, align 8, !tbaa !96
  %9 = fdiv double %6, %8
  %10 = getelementptr inbounds nuw i8, ptr %0, i64 696
  %11 = load double, ptr %10, align 8, !tbaa !99
  %12 = fsub double %2, %11
  %13 = getelementptr inbounds nuw i8, ptr %0, i64 656
  %14 = load double, ptr %13, align 8, !tbaa !95
  %15 = fdiv double %12, %14
  %16 = tail call double @llvm.fabs.f64(double %9)
  %17 = fcmp olt double %16, 1.000000e-04
  %18 = tail call double @llvm.fabs.f64(double %15)
  %19 = fcmp olt double %18, 1.000000e-04
  %or.cond = select i1 %17, i1 %19, i1 false
  br i1 %or.cond, label %47, label %20

20:                                               ; preds = %3
  %21 = getelementptr inbounds nuw i8, ptr %0, i64 669
  %22 = load i8, ptr %21, align 1, !tbaa !93
  switch i8 %22, label %46 [
    i8 0, label %23
    i8 2, label %24
  ]

23:                                               ; preds = %20
  tail call fastcc void @gvevent_find_current_obj(ptr noundef nonnull %0, double %1, double %2)
  br label %46

24:                                               ; preds = %20
  %25 = getelementptr inbounds nuw i8, ptr %0, i64 488
  %26 = load i32, ptr %25, align 8, !tbaa !94
  %.not = icmp eq i32 %26, 0
  %27 = getelementptr inbounds nuw i8, ptr %0, i64 480
  %28 = load double, ptr %27, align 8, !tbaa !30
  %29 = getelementptr inbounds nuw i8, ptr %0, i64 464
  %30 = load double, ptr %29, align 8, !tbaa !31
  %31 = getelementptr inbounds nuw i8, ptr %0, i64 472
  br i1 %.not, label %38, label %32

32:                                               ; preds = %24
  %33 = fdiv double %15, %28
  %34 = fsub double %30, %33
  store double %34, ptr %29, align 8, !tbaa !31
  %35 = fdiv double %9, %28
  %36 = load double, ptr %31, align 8, !tbaa !33
  %37 = fadd double %35, %36
  br label %44

38:                                               ; preds = %24
  %39 = fdiv double %9, %28
  %40 = fsub double %30, %39
  store double %40, ptr %29, align 8, !tbaa !31
  %41 = fdiv double %15, %28
  %42 = load double, ptr %31, align 8, !tbaa !33
  %43 = fsub double %42, %41
  br label %44

44:                                               ; preds = %38, %32
  %.sink = phi double [ %43, %38 ], [ %37, %32 ]
  store double %.sink, ptr %31, align 8, !tbaa !33
  %45 = getelementptr inbounds nuw i8, ptr %0, i64 665
  store i8 1, ptr %45, align 1, !tbaa !32
  br label %46

46:                                               ; preds = %44, %23, %20
  store double %1, ptr %4, align 8, !tbaa !97
  store double %2, ptr %10, align 8, !tbaa !97
  br label %47

47:                                               ; preds = %3, %46
  ret void
}